; Function Attrs: mustprogress uwtable
define dso_local void @_ZN4Luau7CodeGen3X6418AssemblyBuilderX643leaENS1_10OperandX64ES3_(ptr noundef nonnull align 8 dereferenceable(252) %0, i64 %1, i64 %2) local_unnamed_addr #0 align 2 {
  %4 = getelementptr inbounds nuw i8, ptr %0, i64 80
  %5 = load i8, ptr %4, align 8, !tbaa !14, !range !61, !noundef !62
  %6 = trunc nuw i8 %5 to i1
  br i1 %6, label %7, label %8

7:                                                ; preds = %3
  tail call void @_ZN4Luau7CodeGen3X6418AssemblyBuilderX643logEPKcNS1_10OperandX64ES5_(ptr noundef nonnull align 8 dereferenceable(252) %0, ptr noundef nonnull @.str.26, i64 %1, i64 %2)
  br label %8

8:                                                ; preds = %7, %3
  %9 = shl i64 %1, 8
  %.sroa.3.0.insert.ext32 = and i64 %9, 117440512
  %10 = and i64 %2, -251658241
  %.sroa.04.0.insert.insert = or disjoint i64 %10, %.sroa.3.0.insert.ext32
  tail call void @_ZN4Luau7CodeGen3X6418AssemblyBuilderX6423placeBinaryRegAndRegMemENS1_10OperandX64ES3_hh(ptr noundef nonnull align 8 dereferenceable(252) %0, i64 %1, i64 %.sroa.04.0.insert.insert, i8 noundef zeroext -115, i8 noundef zeroext -115)
  ret void
}